; Function Attrs: nounwind uwtable
define i32 @Abc_CountZddCubes(ptr noundef %0, ptr noundef %1) local_unnamed_addr #2 {
  %3 = alloca i32, align 4
  call void @llvm.lifetime.start.p0(i64 4, ptr nonnull %3) #17
  store i32 0, ptr %3, align 4, !tbaa !6
  call void @Abc_CountZddCubes_rec(ptr noundef %0, ptr noundef %1, ptr noundef nonnull %3)
  %4 = load i32, ptr %3, align 4, !tbaa !6
  call void @llvm.lifetime.end.p0(i64 4, ptr nonnull %3) #17
  ret i32 %4
}